target datalayout = "e-m:e-p270:32:32-p271:32:32-p272:64:64-i64:64-i128:128-f80:128-n8:16:32:64-S128"
target triple = "x86_64-pc-linux-gnu"

%struct.AVProbeData = type { ptr, ptr, i32, ptr }

@signature = internal constant [22 x i8] c"Interplay MVE File\1A\00\1A\00", align 16

; Function Attrs: nounwind uwtable
define internal i32 @ipmovie_probe(ptr noundef %0) #0 {
  %2 = alloca i32, align 4
  %3 = alloca ptr, align 8
  %4 = alloca ptr, align 8
  %5 = alloca ptr, align 8
  %6 = alloca i32, align 4
  store ptr %0, ptr %3, align 8, !tbaa !4
  call void @llvm.lifetime.start.p0(i64 8, ptr %4) #6
  %7 = load ptr, ptr %3, align 8, !tbaa !4
  %8 = getelementptr inbounds nuw %struct.AVProbeData, ptr %7, i32 0, i32 1
  %9 = load ptr, ptr %8, align 8, !tbaa !9
  store ptr %9, ptr %4, align 8, !tbaa !13
  call void @llvm.lifetime.start.p0(i64 8, ptr %5) #6
  %10 = load ptr, ptr %3, align 8, !tbaa !4
  %11 = getelementptr inbounds nuw %struct.AVProbeData, ptr %10, i32 0, i32 1
  %12 = load ptr, ptr %11, align 8, !tbaa !9
  %13 = load ptr, ptr %3, align 8, !tbaa !4
  %14 = getelementptr inbounds nuw %struct.AVProbeData, ptr %13, i32 0, i32 2
  %15 = load i32, ptr %14, align 8, !tbaa !14
  %16 = sext i32 %15 to i64
  %17 = getelementptr inbounds i8, ptr %12, i64 %16
  %18 = getelementptr inbounds i8, ptr %17, i64 -22
  store ptr %18, ptr %5, align 8, !tbaa !13
  br label %19

19:                                               ; preds = %35, %1
  %20 = load ptr, ptr %4, align 8, !tbaa !13
  %21 = getelementptr inbounds i8, ptr %20, i64 0
  %22 = load i8, ptr %21, align 1, !tbaa !15
  %23 = zext i8 %22 to i32
  %24 = load i8, ptr @signature, align 16, !tbaa !15
  %25 = sext i8 %24 to i32
  %26 = icmp eq i32 %23, %25
  br i1 %26, label %27, label %32

27:                                               ; preds = %19
  %28 = load ptr, ptr %4, align 8, !tbaa !13
  %29 = call i32 @memcmp(ptr noundef %28, ptr noundef @signature, i64 noundef 22) #7
  %30 = icmp eq i32 %29, 0
  br i1 %30, label %31, label %32

31:                                               ; preds = %27
  store i32 100, ptr %2, align 4
  store i32 1, ptr %6, align 4
  br label %40

32:                                               ; preds = %27, %19
  %33 = load ptr, ptr %4, align 8, !tbaa !13
  %34 = getelementptr inbounds nuw i8, ptr %33, i32 1
  store ptr %34, ptr %4, align 8, !tbaa !13
  br label %35

35:                                               ; preds = %32
  %36 = load ptr, ptr %4, align 8, !tbaa !13
  %37 = load ptr, ptr %5, align 8, !tbaa !13
  %38 = icmp ult ptr %36, %37
  br i1 %38, label %19, label %39, !llvm.loop !16

39:                                               ; preds = %35
  store i32 0, ptr %2, align 4
  store i32 1, ptr %6, align 4
  br label %40

40:                                               ; preds = %39, %31
  call void @llvm.lifetime.end.p0(i64 8, ptr %5) #6
  call void @llvm.lifetime.end.p0(i64 8, ptr %4) #6
  %41 = load i32, ptr %2, align 4
  ret i32 %41
}