; Function Attrs: nofree norecurse nounwind memory(read, inaccessiblemem: none) uwtable
define internal range(i32 0, 101) i32 @ipmovie_probe(ptr noundef readonly captures(none) %0) #0 {
  %2 = getelementptr inbounds nuw i8, ptr %0, i64 8
  %3 = load ptr, ptr %2, align 8, !tbaa !4
  %4 = getelementptr inbounds nuw i8, ptr %0, i64 16
  %5 = load i32, ptr %4, align 8, !tbaa !11
  %6 = sext i32 %5 to i64
  %7 = getelementptr inbounds i8, ptr %3, i64 %6
  %8 = getelementptr inbounds i8, ptr %7, i64 -22
  br label %9

9:                                                ; preds = %14, %1
  %.08 = phi ptr [ %3, %1 ], [ %15, %14 ]
  %10 = load i8, ptr %.08, align 1, !tbaa !12
  %11 = icmp eq i8 %10, 73
  br i1 %11, label %12, label %14

12:                                               ; preds = %9
  %bcmp = tail call i32 @bcmp(ptr noundef nonnull dereferenceable(22) %.08, ptr noundef nonnull dereferenceable(22) @signature, i64 22)
  %13 = icmp eq i32 %bcmp, 0
  br i1 %13, label %17, label %14

14:                                               ; preds = %12, %9
  %15 = getelementptr inbounds nuw i8, ptr %.08, i64 1
  %16 = icmp ult ptr %15, %8
  br i1 %16, label %9, label %17, !llvm.loop !13

17:                                               ; preds = %14, %12
  %.0 = phi i32 [ 100, %12 ], [ 0, %14 ]
  ret i32 %.0
}